; Function Attrs: mustprogress uwtable
define void @_ZN32pxrInternal_v0_24__pxrReserved__40PcpErrorInconsistentAttributeVariabilityC2Ev(ptr noundef nonnull align 8 dereferenceable(192) %0) unnamed_addr #0 align 2 {
  store ptr getelementptr inbounds inrange(-16, 24) (i8, ptr @_ZTVN32pxrInternal_v0_24__pxrReserved__12PcpErrorBaseE, i64 16), ptr %0, align 8
  %2 = getelementptr inbounds nuw i8, ptr %0, i64 8
  store i32 8, ptr %2, align 8
  %3 = getelementptr inbounds nuw i8, ptr %0, i64 16
  tail call void @_ZN32pxrInternal_v0_24__pxrReserved__7PcpSiteC1Ev(ptr noundef nonnull align 8 dereferenceable(88) %3)
  store ptr getelementptr inbounds inrange(-16, 24) (i8, ptr @_ZTVN32pxrInternal_v0_24__pxrReserved__32PcpErrorInconsistentPropertyBaseE, i64 16), ptr %0, align 8
  %4 = getelementptr inbounds nuw i8, ptr %0, i64 104
  tail call void @_ZNSt7__cxx1112basic_stringIcSt11char_traitsIcESaIcEEC1Ev(ptr noundef nonnull align 8 dereferenceable(32) %4) #19
  %5 = getelementptr inbounds nuw i8, ptr %0, i64 136
  store i32 0, ptr %5, align 8
  %6 = getelementptr inbounds i8, ptr %0, i64 140
  store i32 0, ptr %6, align 4
  %7 = getelementptr inbounds nuw i8, ptr %0, i64 144
  tail call void @_ZNSt7__cxx1112basic_stringIcSt11char_traitsIcESaIcEEC1Ev(ptr noundef nonnull align 8 dereferenceable(32) %7) #19
  %8 = getelementptr inbounds nuw i8, ptr %0, i64 176
  store i32 0, ptr %8, align 8
  %9 = getelementptr inbounds i8, ptr %0, i64 180
  store i32 0, ptr %9, align 4
  store ptr getelementptr inbounds inrange(-16, 24) (i8, ptr @_ZTVN32pxrInternal_v0_24__pxrReserved__40PcpErrorInconsistentAttributeVariabilityE, i64 16), ptr %0, align 8
  ret void
}